target datalayout = "e-m:e-p270:32:32-p271:32:32-p272:64:64-i64:64-i128:128-f80:128-n8:16:32:64-S128"
target triple = "x86_64-pc-linux-gnu"

%struct.crypto_thread_st = type { i32, ptr, ptr, i32, ptr, ptr, ptr, ptr, i64, i32, ptr }

@.str = private unnamed_addr constant [32 x i8] c"../openssl/crypto/thread/arch.c\00", align 1

; Function Attrs: nounwind uwtable
define ptr @ossl_crypto_thread_native_start(ptr noundef %0, ptr noundef %1, i32 noundef %2) #0 {
  %4 = alloca ptr, align 8
  %5 = alloca ptr, align 8
  %6 = alloca ptr, align 8
  %7 = alloca i32, align 4
  %8 = alloca ptr, align 8
  %9 = alloca i32, align 4
  store ptr %0, ptr %5, align 8, !tbaa !3
  store ptr %1, ptr %6, align 8, !tbaa !3
  store i32 %2, ptr %7, align 4, !tbaa !7
  call void @llvm.lifetime.start.p0(i64 8, ptr %8) #3
  %10 = load ptr, ptr %5, align 8, !tbaa !3
  %11 = icmp eq ptr %10, null
  br i1 %11, label %12, label %13

12:                                               ; preds = %3
  store ptr null, ptr %4, align 8
  store i32 1, ptr %9, align 4
  br label %60

13:                                               ; preds = %3
  %14 = call noalias ptr @CRYPTO_zalloc(i64 noundef 88, ptr noundef @.str, i32 noundef 21)
  store ptr %14, ptr %8, align 8, !tbaa !9
  %15 = load ptr, ptr %8, align 8, !tbaa !9
  %16 = icmp eq ptr %15, null
  br i1 %16, label %17, label %18

17:                                               ; preds = %13
  store ptr null, ptr %4, align 8
  store i32 1, ptr %9, align 4
  br label %60

18:                                               ; preds = %13
  %19 = call ptr @ossl_crypto_mutex_new()
  %20 = load ptr, ptr %8, align 8, !tbaa !9
  %21 = getelementptr inbounds nuw %struct.crypto_thread_st, ptr %20, i32 0, i32 5
  store ptr %19, ptr %21, align 8, !tbaa !11
  %22 = icmp eq ptr %19, null
  br i1 %22, label %23, label %24

23:                                               ; preds = %18
  br label %52

24:                                               ; preds = %18
  %25 = call ptr @ossl_crypto_mutex_new()
  %26 = load ptr, ptr %8, align 8, !tbaa !9
  %27 = getelementptr inbounds nuw %struct.crypto_thread_st, ptr %26, i32 0, i32 6
  store ptr %25, ptr %27, align 8, !tbaa !17
  %28 = icmp eq ptr %25, null
  br i1 %28, label %29, label %30

29:                                               ; preds = %24
  br label %52

30:                                               ; preds = %24
  %31 = call ptr @ossl_crypto_condvar_new()
  %32 = load ptr, ptr %8, align 8, !tbaa !9
  %33 = getelementptr inbounds nuw %struct.crypto_thread_st, ptr %32, i32 0, i32 7
  store ptr %31, ptr %33, align 8, !tbaa !18
  %34 = icmp eq ptr %31, null
  br i1 %34, label %35, label %36

35:                                               ; preds = %30
  br label %52

36:                                               ; preds = %30
  %37 = load ptr, ptr %6, align 8, !tbaa !3
  %38 = load ptr, ptr %8, align 8, !tbaa !9
  %39 = getelementptr inbounds nuw %struct.crypto_thread_st, ptr %38, i32 0, i32 1
  store ptr %37, ptr %39, align 8, !tbaa !19
  %40 = load ptr, ptr %5, align 8, !tbaa !3
  %41 = load ptr, ptr %8, align 8, !tbaa !9
  %42 = getelementptr inbounds nuw %struct.crypto_thread_st, ptr %41, i32 0, i32 2
  store ptr %40, ptr %42, align 8, !tbaa !20
  %43 = load i32, ptr %7, align 4, !tbaa !7
  %44 = load ptr, ptr %8, align 8, !tbaa !9
  %45 = getelementptr inbounds nuw %struct.crypto_thread_st, ptr %44, i32 0, i32 9
  store i32 %43, ptr %45, align 8, !tbaa !21
  %46 = load ptr, ptr %8, align 8, !tbaa !9
  %47 = call i32 @ossl_crypto_thread_native_spawn(ptr noundef %46)
  %48 = icmp eq i32 %47, 1
  br i1 %48, label %49, label %51

49:                                               ; preds = %36
  %50 = load ptr, ptr %8, align 8, !tbaa !9
  store ptr %50, ptr %4, align 8
  store i32 1, ptr %9, align 4
  br label %60

51:                                               ; preds = %36
  br label %52

52:                                               ; preds = %51, %35, %29, %23
  %53 = load ptr, ptr %8, align 8, !tbaa !9
  %54 = getelementptr inbounds nuw %struct.crypto_thread_st, ptr %53, i32 0, i32 7
  call void @ossl_crypto_condvar_free(ptr noundef %54)
  %55 = load ptr, ptr %8, align 8, !tbaa !9
  %56 = getelementptr inbounds nuw %struct.crypto_thread_st, ptr %55, i32 0, i32 6
  call void @ossl_crypto_mutex_free(ptr noundef %56)
  %57 = load ptr, ptr %8, align 8, !tbaa !9
  %58 = getelementptr inbounds nuw %struct.crypto_thread_st, ptr %57, i32 0, i32 5
  call void @ossl_crypto_mutex_free(ptr noundef %58)
  %59 = load ptr, ptr %8, align 8, !tbaa !9
  call void @CRYPTO_free(ptr noundef %59, ptr noundef @.str, i32 noundef 43)
  store ptr null, ptr %4, align 8
  store i32 1, ptr %9, align 4
  br label %60

60:                                               ; preds = %52, %49, %17, %12
  call void @llvm.lifetime.end.p0(i64 8, ptr %8) #3
  %61 = load ptr, ptr %4, align 8
  ret ptr %61
}