; Function Attrs: nounwind uwtable
define ptr @ossl_crypto_thread_native_start(ptr noundef %0, ptr noundef %1, i32 noundef %2) local_unnamed_addr #0 {
  %4 = icmp eq ptr %0, null
  br i1 %4, label %29, label %5

5:                                                ; preds = %3
  %6 = tail call noalias ptr @CRYPTO_zalloc(i64 noundef 88, ptr noundef nonnull @.str, i32 noundef 21) #2
  %7 = icmp eq ptr %6, null
  br i1 %7, label %29, label %8

8:                                                ; preds = %5
  %9 = tail call ptr @ossl_crypto_mutex_new() #2
  %10 = getelementptr inbounds nuw i8, ptr %6, i64 40
  store ptr %9, ptr %10, align 8, !tbaa !3
  %11 = icmp eq ptr %9, null
  br i1 %11, label %26, label %12

12:                                               ; preds = %8
  %13 = tail call ptr @ossl_crypto_mutex_new() #2
  %14 = getelementptr inbounds nuw i8, ptr %6, i64 48
  store ptr %13, ptr %14, align 8, !tbaa !13
  %15 = icmp eq ptr %13, null
  br i1 %15, label %26, label %16

16:                                               ; preds = %12
  %17 = tail call ptr @ossl_crypto_condvar_new() #2
  %18 = getelementptr inbounds nuw i8, ptr %6, i64 56
  store ptr %17, ptr %18, align 8, !tbaa !14
  %19 = icmp eq ptr %17, null
  br i1 %19, label %26, label %20

20:                                               ; preds = %16
  %21 = getelementptr inbounds nuw i8, ptr %6, i64 8
  store ptr %1, ptr %21, align 8, !tbaa !15
  %22 = getelementptr inbounds nuw i8, ptr %6, i64 16
  store ptr %0, ptr %22, align 8, !tbaa !16
  %23 = getelementptr inbounds nuw i8, ptr %6, i64 72
  store i32 %2, ptr %23, align 8, !tbaa !17
  %24 = tail call i32 @ossl_crypto_thread_native_spawn(ptr noundef nonnull %6) #2
  %25 = icmp eq i32 %24, 1
  br i1 %25, label %29, label %26

26:                                               ; preds = %20, %16, %12, %8
  %27 = getelementptr inbounds nuw i8, ptr %6, i64 56
  tail call void @ossl_crypto_condvar_free(ptr noundef nonnull %27) #2
  %28 = getelementptr inbounds nuw i8, ptr %6, i64 48
  tail call void @ossl_crypto_mutex_free(ptr noundef nonnull %28) #2
  tail call void @ossl_crypto_mutex_free(ptr noundef nonnull %10) #2
  tail call void @CRYPTO_free(ptr noundef nonnull %6, ptr noundef nonnull @.str, i32 noundef 43) #2
  br label %29

29:                                               ; preds = %20, %5, %3, %26
  %.0 = phi ptr [ null, %26 ], [ null, %3 ], [ null, %5 ], [ %6, %20 ]
  ret ptr %.0
}